; Function Attrs: mustprogress uwtable
define noundef double @_ZNK8QuantLib4Bond10cleanPriceEv(ptr noundef nonnull align 8 dereferenceable(248) %this) local_unnamed_addr #9 align 2 {
entry:
  %agg.tmp2.i = alloca %"class.QuantLib::Date", align 8
  %agg.tmp2 = alloca %"class.QuantLib::Date", align 8
  call void @llvm.lifetime.start.p0(i64 8, ptr nonnull %agg.tmp2.i)
  call void @_ZN8QuantLib4DateC1Ev(ptr noundef nonnull align 8 dereferenceable(8) %agg.tmp2.i)
  %0 = load i64, ptr %agg.tmp2.i, align 8
  %call.i = call i64 @_ZNK8QuantLib4Bond14settlementDateENS_4DateE(ptr noundef nonnull align 8 dereferenceable(248) %this, i64 %0)
  %vtable.i = load ptr, ptr %this, align 8, !tbaa !33
  %vfn.i = getelementptr inbounds i8, ptr %vtable.i, i64 80
  %1 = load ptr, ptr %vfn.i, align 8
  %call5.i = call noundef double %1(ptr noundef nonnull align 8 dereferenceable(248) %this, i64 %call.i)
  %cmp.i = fcmp oeq double %call5.i, 0.000000e+00
  br i1 %cmp.i, label %_ZNK8QuantLib4Bond10dirtyPriceEv.exit, label %if.else.i

if.else.i:                                        ; preds = %entry
  %call6.i = call noundef double @_ZNK8QuantLib4Bond15settlementValueEv(ptr noundef nonnull align 8 dereferenceable(248) %this)
  %mul.i = fmul double %call6.i, 1.000000e+02
  %div.i = fdiv double %mul.i, %call5.i
  br label %_ZNK8QuantLib4Bond10dirtyPriceEv.exit

_ZNK8QuantLib4Bond10dirtyPriceEv.exit:            ; preds = %entry, %if.else.i
  %retval.0.i = phi double [ %div.i, %if.else.i ], [ 0.000000e+00, %entry ]
  call void @llvm.lifetime.end.p0(i64 8, ptr nonnull %agg.tmp2.i)
  call void @_ZN8QuantLib4DateC1Ev(ptr noundef nonnull align 8 dereferenceable(8) %agg.tmp2)
  %2 = load i64, ptr %agg.tmp2, align 8
  %call3 = call i64 @_ZNK8QuantLib4Bond14settlementDateENS_4DateE(ptr noundef nonnull align 8 dereferenceable(248) %this, i64 %2)
  %vtable = load ptr, ptr %this, align 8, !tbaa !33
  %vfn = getelementptr inbounds i8, ptr %vtable, i64 88
  %3 = load ptr, ptr %vfn, align 8
  %call6 = call noundef double %3(ptr noundef nonnull align 8 dereferenceable(248) %this, i64 %call3)
  %sub = fsub double %retval.0.i, %call6
  ret double %sub
}